; Function Attrs: mustprogress nounwind uwtable
define hidden noundef ptr @_ZN8ciSymbol9make_implEPKc(ptr noundef %0) local_unnamed_addr #0 align 2 {
  %2 = tail call align 8 ptr @llvm.threadlocal.address.p0(ptr align 8 @_ZN6Thread12_thr_currentE)
  %3 = load ptr, ptr %2, align 8
  %4 = tail call i64 @strlen(ptr noundef nonnull dereferenceable(1) %0) #8
  %5 = trunc i64 %4 to i32
  %6 = tail call noundef ptr @_ZN11SymbolTable10new_symbolEPKci(ptr noundef %0, i32 noundef %5) #7
  %.not.i = icmp eq ptr %6, null
  br i1 %.not.i, label %12, label %7

7:                                                ; preds = %1
  %8 = load volatile i32, ptr %6, align 4
  %9 = and i32 %8, 65535
  %10 = icmp eq i32 %9, 1
  br i1 %10, label %11, label %_ZN16SymbolHandleBaseILb1EED2Ev.exit

11:                                               ; preds = %7
  tail call void @_ZN24TempSymbolCleanupDelayer13delay_cleanupEP6Symbol(ptr noundef nonnull %6) #7
  br label %_ZN16SymbolHandleBaseILb1EED2Ev.exit

12:                                               ; preds = %1
  %13 = load ptr, ptr @g_assert_poison, align 8
  store i8 88, ptr %13, align 1
  tail call void @_Z28report_should_not_reach_herePKci(ptr noundef nonnull @.str.9, i32 noundef 183) #9
  unreachable

_ZN16SymbolHandleBaseILb1EED2Ev.exit:             ; preds = %7, %11
  %14 = getelementptr inbounds i8, ptr %3, i64 1808
  %15 = load ptr, ptr %14, align 8
  %16 = getelementptr inbounds i8, ptr %15, i64 56
  %17 = load ptr, ptr %16, align 8
  %18 = tail call noundef ptr @_ZN15ciObjectFactory10get_symbolEP6Symbol(ptr noundef nonnull align 8 dereferenceable(652) %17, ptr noundef nonnull %6) #7
  tail call void @_ZN6Symbol18decrement_refcountEv(ptr noundef nonnull align 4 dereferenceable(8) %6) #7
  ret ptr %18
}